ccopy_reg
_reconstructor
p0
(cpowercad.thermal.elmer_characterize
CachedCharacterization
p1
c__builtin__
object
p2
Ntp3
Rp4
(dp5
S'sublayer_tf'
p6
(ipowercad.thermal.fast_thermal
SublayerThermalFeatures
p7
(dp8
S't_amb'
p9
F300.0
sS'sub_res'
p10
cnumpy.core.multiarray
scalar
p11
(cnumpy
dtype
p12
(S'f8'
p13
I0
I1
tp14
Rp15
(I3
S'<'
p16
NNNI-1
I-1
I0
tp17
bS'\n\xd7v%1\x0c\x8c?'
p18
tp19
Rp20
sS'metal_thickness'
p21
F0.2
sS'metal_cond'
p22
F400.0
sbsS'materials'
p23
(lp24
(F9700.0
F190.0
tp25
a(F11020.0
F35.8
tp26
a(F8020.0
F400.0
tp27
a(F3250.0
F160.0
tp28
a(F8020.0
F400.0
tp29
a(F11020.0
F35.8
tp30
a(F3200.0
F120.0
tp31
asS'thermal_features'
p32
(ipowercad.thermal.fast_thermal
DieThermalFeatures
p33
(dp34
S'eff_power'
p35
F639.6316420249765
sS'iso_top_temps'
p36
(lp37
(ipowercad.thermal.fast_thermal
ContourRect
p38
(dp39
S'width'
p40
F3.1
sS'avg_val'
p41
F418.25732232942374
sS'height'
p42
F2.942942942942943
sba(ipowercad.thermal.fast_thermal
ContourRect
p43
(dp44
g40
F9.422222222222222
sg41
F150.13740041551463
sg42
F9.48948948948949
sba(ipowercad.thermal.fast_thermal
ContourRect
p45
(dp46
g40
F15.744444444444444
sg41
F53.41036734986757
sg42
F15.435435435435435
sba(ipowercad.thermal.fast_thermal
ContourRect
p47
(dp48
g40
F22.066666666666666
sg41
F24.209287563248637
sg42
F22.04204204204204
sba(ipowercad.thermal.fast_thermal
ContourRect
p49
(dp50
g40
F28.38888888888889
sg41
F11.784136711179475
sg42
F28.58858858858859
sba(ipowercad.thermal.fast_thermal
ContourRect
p51
(dp52
g40
F34.71111111111111
sg41
F6.038691592356096
sg42
F34.77477477477478
sba(ipowercad.thermal.fast_thermal
ContourRect
p53
(dp54
g40
F41.03333333333333
sg41
F3.1970702305174425
sg42
F41.08108108108108
sba(ipowercad.thermal.fast_thermal
ContourRect
p55
(dp56
g40
F47.355555555555554
sg41
F1.754021269101543
sg42
F47.447447447447445
sba(ipowercad.thermal.fast_thermal
ContourRect
p57
(dp58
g40
F53.67777777777778
sg41
F1.020410057735773
sg42
F53.873873873873876
sba(ipowercad.thermal.fast_thermal
ContourRect
p59
(dp60
g40
F60.0
sg41
F0.6728002051089739
sg42
F60.0
sbasS'iso_top_avg_temp'
p61
F10.271347014296463
sS'die_power'
p62
F750.0
sS'die_res'
p63
F0.6071761452707745
sS'self_temp'
p64
F404.67341075711187
sS'iso_top_fluxes'
p65
(lp66
(ipowercad.thermal.fast_thermal
ContourRect
p67
(dp68
g40
F3.1
sg41
F35.45448539107497
sg42
F3.003003003003003
sba(ipowercad.thermal.fast_thermal
ContourRect
p69
(dp70
g40
F3.511355800244689
sg41
F22.257676576496166
sg42
F3.4834834834834836
sba(ipowercad.thermal.fast_thermal
ContourRect
p71
(dp72
g40
F3.9227116004893783
sg41
F17.012751227746723
sg42
F4.024024024024024
sba(ipowercad.thermal.fast_thermal
ContourRect
p73
(dp74
g40
F4.334067400734067
sg41
F12.119225773356796
sg42
F4.564564564564565
sba(ipowercad.thermal.fast_thermal
ContourRect
p75
(dp76
g40
F4.745423200978756
sg41
F8.07353508673246
sg42
F5.105105105105105
sba(ipowercad.thermal.fast_thermal
ContourRect
p77
(dp78
g40
F5.156779001223446
sg41
F3.5268513918001294
sg42
F6.426426426426427
sba(ipowercad.thermal.fast_thermal
ContourRect
p79
(dp80
g40
F5.568134801468135
sg41
F0.15259754529765726
sg42
F60.0
sba(ipowercad.thermal.fast_thermal
ContourRect
p81
(dp82
g40
F5.979490601712824
sg41
F0.3951662706030843
sg42
F60.0
sba(ipowercad.thermal.fast_thermal
ContourRect
p83
(dp84
g40
F6.390846401957512
sg41
F0.29241054171290914
sg42
F60.0
sba(ipowercad.thermal.fast_thermal
ContourRect
p85
(dp86
g40
F6.802202202202202
sg41
F0.2196922354574589
sg42
F60.0
sbasbsS'conv_coeff'
p87
F50000.0
sS'dimensions'
p88
(lp89
cnumpy.core.multiarray
_reconstruct
p90
(cnumpy
ndarray
p91
(I0
tp92
S'b'
p93
tp94
Rp95
(I1
(I7
tp96
g15
I00
S'\xfc\xa9\xf1\xd2Mb\xb0?\xb8\x1e\x85\xebQ\xb8\xae?\xb8\x1e\x85\xebQ\xb8\xae?\xb8\x1e\x85\xebQ\xb8\xae?y\xe9&1\x08\xac\xac?\x14a\xc3\xd3+ei?\x14a\xc3\xd3+ei?'
p97
tp98
bag90
(g91
(I0
tp99
g93
tp100
Rp101
(I1
(I7
tp102
g15
I00
S'\xfc\xa9\xf1\xd2Mb\xb0?\xb8\x1e\x85\xebQ\xb8\xae?\xb8\x1e\x85\xebQ\xb8\xae?\xb8\x1e\x85\xebQ\xb8\xae?y\xe9&1\x08\xac\xac?\x14a\xc3\xd3+ei?\x14a\xc3\xd3+ei?'
p103
tp104
bag90
(g91
(I0
tp105
g93
tp106
Rp107
(I1
(I7
tp108
g15
I00
S'{\x14\xaeG\xe1zt?-C\x1c\xeb\xe26\x1a?-C\x1c\xeb\xe26*?\xf1h\xe3\x88\xb5\xf8D?-C\x1c\xeb\xe26*?-C\x1c\xeb\xe26\x1a?\xb2c#\x10\xaf\xeb7?'
p109
tp110
bag90
(g91
(I0
tp111
g93
tp112
Rp113
(I1
(I7
tp114
g15
I00
S'\x1e\x82\xbd\x9c\xecya?\xfc\xa9\xf1\xd2Mb`?\xfc\xa9\xf1\xd2Mb`?\xfc\xa9\xf1\xd2Mb`?\xfc\xa9\xf1\xd2Mb`?\xa9M\x9c\xdc\xefP4?\xa9M\x9c\xdc\xefP4?'
p115
tp116
basb.