ccopy_reg
_reconstructor
p0
(cpowercad.thermal.elmer_characterize
CachedCharacterization
p1
c__builtin__
object
p2
Ntp3
Rp4
(dp5
S'sublayer_tf'
p6
(ipowercad.thermal.fast_thermal
SublayerThermalFeatures
p7
(dp8
S't_amb'
p9
F300.0
sS'sub_res'
p10
cnumpy.core.multiarray
scalar
p11
(cnumpy
dtype
p12
(S'f8'
p13
I0
I1
tp14
Rp15
(I3
S'<'
p16
NNNI-1
I-1
I0
tp17
bS'\xb8\x9e\xc6\xe2\xf7\xb4v?'
p18
tp19
Rp20
sS'metal_thickness'
p21
F0.2
sS'metal_cond'
p22
F400.0
sbsS'materials'
p23
(lp24
(F9700.0
F190.0
tp25
a(F11020.0
F35.8
tp26
a(F8020.0
F400.0
tp27
a(F3250.0
F160.0
tp28
a(F8020.0
F400.0
tp29
a(F11020.0
F35.8
tp30
a(F3200.0
F120.0
tp31
asS'thermal_features'
p32
(ipowercad.thermal.fast_thermal
DieThermalFeatures
p33
(dp34
S'eff_power'
p35
F94.29824970285814
sS'iso_top_temps'
p36
(lp37
(ipowercad.thermal.fast_thermal
ContourRect
p38
(dp39
S'width'
p40
F3.1
sS'avg_val'
p41
F50.73946369189055
sS'height'
p42
F3.003003003003003
sba(ipowercad.thermal.fast_thermal
ContourRect
p43
(dp44
g40
F9.093104215326438
sg41
F18.976410222078886
sg42
F9.384384384384385
sba(ipowercad.thermal.fast_thermal
ContourRect
p45
(dp46
g40
F15.086208430652876
sg41
F5.227356204676086
sg42
F15.165165165165165
sba(ipowercad.thermal.fast_thermal
ContourRect
p47
(dp48
g40
F21.079312645979314
sg41
F1.6134765718608561
sg42
F20.57057057057057
sba(ipowercad.thermal.fast_thermal
ContourRect
p49
(dp50
g40
F27.072416861305754
sg41
F0.5075308347779224
sg42
F26.8018018018018
sba(ipowercad.thermal.fast_thermal
ContourRect
p51
(dp52
g40
F33.065521076632194
sg41
F0.16387483455133436
sg42
F32.35735735735736
sba(ipowercad.thermal.fast_thermal
ContourRect
p53
(dp54
g40
F39.05862529195863
sg41
F0.05386252507471028
sg42
F38.66366366366366
sba(ipowercad.thermal.fast_thermal
ContourRect
p55
(dp56
g40
F45.05172950728507
sg41
F0.0166095659557758
sg42
F44.96996996996997
sba(ipowercad.thermal.fast_thermal
ContourRect
p57
(dp58
g40
F51.04483372261151
sg41
F0.005887491799061303
sg42
F49.3993993993994
sba(ipowercad.thermal.fast_thermal
ContourRect
p59
(dp60
g40
F57.03793793793795
sg41
F-0.004870450224600757
sg42
F75.0
sbasS'iso_top_avg_temp'
p61
F0.5543678573680059
sS'die_power'
p62
F100.0
sS'die_res'
p63
F0.6071761452707745
sS'self_temp'
p64
F49.7456182718819
sS'iso_top_fluxes'
p65
(lp66
(ipowercad.thermal.fast_thermal
ContourRect
p67
(dp68
g40
F3.1
sg41
F4.644546015947769
sg42
F3.0780780780780783
sba(ipowercad.thermal.fast_thermal
ContourRect
p69
(dp70
g40
F3.7545100656211767
sg41
F2.7627408886275258
sg42
F3.828828828828829
sba(ipowercad.thermal.fast_thermal
ContourRect
p71
(dp72
g40
F4.409020131242354
sg41
F1.9748903943411782
sg42
F4.42942942942943
sba(ipowercad.thermal.fast_thermal
ContourRect
p73
(dp74
g40
F5.06353019686353
sg41
F1.3256590265265324
sg42
F5.255255255255255
sba(ipowercad.thermal.fast_thermal
ContourRect
p75
(dp76
g40
F5.718040262484707
sg41
F0.8044951641215609
sg42
F6.081081081081082
sba(ipowercad.thermal.fast_thermal
ContourRect
p77
(dp78
g40
F6.372550328105884
sg41
F0.44309017959110397
sg42
F6.981981981981982
sba(ipowercad.thermal.fast_thermal
ContourRect
p79
(dp80
g40
F7.02706039372706
sg41
F0.2437851062197318
sg42
F7.657657657657658
sba(ipowercad.thermal.fast_thermal
ContourRect
p81
(dp82
g40
F7.681570459348237
sg41
F0.0033908077988352827
sg42
F75.0
sba(ipowercad.thermal.fast_thermal
ContourRect
p83
(dp84
g40
F8.336080524969415
sg41
F0.02309606806545111
sg42
F75.0
sba(ipowercad.thermal.fast_thermal
ContourRect
p85
(dp86
g40
F8.99059059059059
sg41
F0.02060549823915425
sg42
F75.0
sbasbsS'conv_coeff'
p87
F50000.0
sS'dimensions'
p88
(lp89
cnumpy.core.multiarray
_reconstruct
p90
(cnumpy
ndarray
p91
(I0
tp92
S'b'
p93
tp94
Rp95
(I1
(I7
tp96
g15
I00
S'+\x87\x16\xd9\xce\xf7\xb3?\x8bl\xe7\xfb\xa9\xf1\xb2?\x8bl\xe7\xfb\xa9\xf1\xb2?\x8bl\xe7\xfb\xa9\xf1\xb2?\x8bl\xe7\xfb\xa9\xf1\xb2?\x14a\xc3\xd3+ei?\x14a\xc3\xd3+ei?'
p97
tp98
bag90
(g91
(I0
tp99
g93
tp100
Rp101
(I1
(I7
tp102
g15
I00
S'\xd3Mb\x10X9\xb4?333333\xb3?333333\xb3?333333\xb3?333333\xb3?\x14a\xc3\xd3+ei?\x14a\xc3\xd3+ei?'
p103
tp104
bag90
(g91
(I0
tp105
g93
tp106
Rp107
(I1
(I7
tp108
g15
I00
S'\xfc\xa9\xf1\xd2MbP?-C\x1c\xeb\xe26\x1a?-C\x1c\xeb\xe26*?\xf1h\xe3\x88\xb5\xf8D?-C\x1c\xeb\xe26*?-C\x1c\xeb\xe26\x1a?\xb2c#\x10\xaf\xeb7?'
p109
tp110
bag90
(g91
(I0
tp111
g93
tp112
Rp113
(I1
(I7
tp114
g15
I00
S'\x95\xf6\x06_\x98Le?s\x1e;\x95\xf94d?s\x1e;\x95\xf94d?s\x1e;\x95\xf94d?s\x1e;\x95\xf94d?\xa9M\x9c\xdc\xefP4?\xa9M\x9c\xdc\xefP4?'
p115
tp116
basb.