ccopy_reg
_reconstructor
p0
(cpowercad.thermal.elmer_characterize
CachedCharacterization
p1
c__builtin__
object
p2
Ntp3
Rp4
(dp5
S'sublayer_tf'
p6
(ipowercad.thermal.fast_thermal
SublayerThermalFeatures
p7
(dp8
S't_amb'
p9
F300.0
sS'sub_res'
p10
cnumpy.core.multiarray
scalar
p11
(cnumpy
dtype
p12
(S'f8'
p13
I0
I1
tp14
Rp15
(I3
S'<'
p16
NNNI-1
I-1
I0
tp17
bS'\xd7\x83\x97\xec\xb7Z\x80?'
p18
tp19
Rp20
sS'metal_thickness'
p21
F0.2
sS'metal_cond'
p22
F400.0
sbsS'materials'
p23
(lp24
(F9700.0
F190.0
tp25
a(F11020.0
F35.8
tp26
a(F8020.0
F400.0
tp27
a(F3250.0
F160.0
tp28
a(F8020.0
F400.0
tp29
a(F11020.0
F35.8
tp30
a(F3200.0
F120.0
tp31
asS'thermal_features'
p32
(ipowercad.thermal.fast_thermal
DieThermalFeatures
p33
(dp34
S'eff_power'
p35
F82.63347021155514
sS'iso_top_temps'
p36
(lp37
(ipowercad.thermal.fast_thermal
ContourRect
p38
(dp39
S'width'
p40
F2.962962962962963
sS'avg_val'
p41
F58.190847809334976
sS'height'
p42
F3.1
sba(ipowercad.thermal.fast_thermal
ContourRect
p43
(dp44
g40
F8.74074074074074
sg41
F19.933703955471287
sg42
F8.755555555555555
sba(ipowercad.thermal.fast_thermal
ContourRect
p45
(dp46
g40
F14.444444444444443
sg41
F5.472616064959664
sg42
F14.41111111111111
sba(ipowercad.thermal.fast_thermal
ContourRect
p47
(dp48
g40
F20.0
sg41
F1.7940592918657077
sg42
F20.066666666666666
sba(ipowercad.thermal.fast_thermal
ContourRect
p49
(dp50
g40
F25.703703703703702
sg41
F0.621084249760235
sg42
F25.72222222222222
sba(ipowercad.thermal.fast_thermal
ContourRect
p51
(dp52
g40
F31.48148148148148
sg41
F0.22018200689728992
sg42
F31.377777777777776
sba(ipowercad.thermal.fast_thermal
ContourRect
p53
(dp54
g40
F37.18518518518518
sg41
F0.07919277996847066
sg42
F37.03333333333333
sba(ipowercad.thermal.fast_thermal
ContourRect
p55
(dp56
g40
F42.74074074074074
sg41
F0.028801589888750194
sg42
F42.68888888888889
sba(ipowercad.thermal.fast_thermal
ContourRect
p57
(dp58
g40
F48.37037037037037
sg41
F0.01040314296400584
sg42
F48.34444444444444
sba(ipowercad.thermal.fast_thermal
ContourRect
p59
(dp60
g40
F53.925925925925924
sg41
F0.003754954290078333
sg42
F54.0
sbasS'iso_top_avg_temp'
p61
F0.7985531718931477
sS'die_power'
p62
F100.0
sS'die_res'
p63
F0.6071761452707745
sS'self_temp'
p64
F56.49967179667911
sS'iso_top_fluxes'
p65
(lp66
(ipowercad.thermal.fast_thermal
ContourRect
p67
(dp68
g40
F2.814814814814815
sg41
F4.728570222372427
sg42
F3.1
sba(ipowercad.thermal.fast_thermal
ContourRect
p69
(dp70
g40
F3.333333333333333
sg41
F2.793201273146835
sg42
F3.649138026915805
sba(ipowercad.thermal.fast_thermal
ContourRect
p71
(dp72
g40
F4.0
sg41
F1.939835159682136
sg42
F4.198276053831609
sba(ipowercad.thermal.fast_thermal
ContourRect
p73
(dp74
g40
F4.666666666666666
sg41
F1.210353415912187
sg42
F4.747414080747414
sba(ipowercad.thermal.fast_thermal
ContourRect
p75
(dp76
g40
F5.259259259259259
sg41
F0.7227720410758428
sg42
F5.296552107663219
sba(ipowercad.thermal.fast_thermal
ContourRect
p77
(dp78
g40
F5.851851851851851
sg41
F0.43764703839490443
sg42
F5.845690134579024
sba(ipowercad.thermal.fast_thermal
ContourRect
p79
(dp80
g40
F6.444444444444444
sg41
F0.289071376977916
sg42
F6.394828161494829
sba(ipowercad.thermal.fast_thermal
ContourRect
p81
(dp82
g40
F9.037037037037036
sg41
F0.22461156650351802
sg42
F6.9439661884106325
sba(ipowercad.thermal.fast_thermal
ContourRect
p83
(dp84
g40
F10.0
sg41
F0.1417830892105935
sg42
F7.493104215326438
sba(ipowercad.thermal.fast_thermal
ContourRect
p85
(dp86
g40
F10.222222222222221
sg41
F0.11127543898246511
sg42
F8.042242242242242
sbasbsS'conv_coeff'
p87
F50000.0
sS'dimensions'
p88
(lp89
cnumpy.core.multiarray
_reconstruct
p90
(cnumpy
ndarray
p91
(I0
tp92
S'b'
p93
tp94
Rp95
(I1
(I7
tp96
g15
I00
S'+\x87\x16\xd9\xce\xf7\xb3?\x8bl\xe7\xfb\xa9\xf1\xb2?\x8bl\xe7\xfb\xa9\xf1\xb2?\x8bl\xe7\xfb\xa9\xf1\xb2?\x8bl\xe7\xfb\xa9\xf1\xb2?\x14a\xc3\xd3+ei?\x14a\xc3\xd3+ei?'
p97
tp98
bag90
(g91
(I0
tp99
g93
tp100
Rp101
(I1
(I7
tp102
g15
I00
S'\x19\x04V\x0e-\xb2\xad?\xd9\xce\xf7S\xe3\xa5\xab?\xd9\xce\xf7S\xe3\xa5\xab?\xd9\xce\xf7S\xe3\xa5\xab?\xd9\xce\xf7S\xe3\xa5\xab?\x14a\xc3\xd3+ei?\x14a\xc3\xd3+ei?'
p103
tp104
bag90
(g91
(I0
tp105
g93
tp106
Rp107
(I1
(I7
tp108
g15
I00
S'\xfc\xa9\xf1\xd2MbP?-C\x1c\xeb\xe26\x1a?-C\x1c\xeb\xe26*?\xf1h\xe3\x88\xb5\xf8D?-C\x1c\xeb\xe26*?-C\x1c\xeb\xe26\x1a?\xb2c#\x10\xaf\xeb7?'
p109
tp110
bag90
(g91
(I0
tp111
g93
tp112
Rp113
(I1
(I7
tp114
g15
I00
S'\xd6{\x17\xdc\xfc\xac_?\x93\xcb\x7fH\xbf}]?\x93\xcb\x7fH\xbf}]?\x93\xcb\x7fH\xbf}]?\x93\xcb\x7fH\xbf}]?\xa9M\x9c\xdc\xefP4?\xa9M\x9c\xdc\xefP4?'
p115
tp116
basb.