ccopy_reg
_reconstructor
p0
(cpowercad.thermal.elmer_characterize
CachedCharacterization
p1
c__builtin__
object
p2
Ntp3
Rp4
(dp5
S'sublayer_tf'
p6
(ipowercad.thermal.fast_thermal
SublayerThermalFeatures
p7
(dp8
S't_amb'
p9
F300.0
sS'sub_res'
p10
cnumpy.core.multiarray
scalar
p11
(cnumpy
dtype
p12
(S'f8'
p13
I0
I1
tp14
Rp15
(I3
S'<'
p16
NNNI-1
I-1
I0
tp17
bS'\xfeT\xb0\xcf/X\x7f?'
p18
tp19
Rp20
sS'metal_thickness'
p21
F0.2
sS'metal_cond'
p22
F400.0
sbsS'materials'
p23
(lp24
(F9700.0
F190.0
tp25
a(F11020.0
F35.8
tp26
a(F8020.0
F400.0
tp27
a(F3250.0
F160.0
tp28
a(F8020.0
F400.0
tp29
a(F11020.0
F35.8
tp30
a(F3200.0
F120.0
tp31
asS'thermal_features'
p32
(ipowercad.thermal.fast_thermal
DieThermalFeatures
p33
(dp34
S'eff_power'
p35
F584.562997985132
sS'iso_top_temps'
p36
(lp37
(ipowercad.thermal.fast_thermal
ContourRect
p38
(dp39
S'width'
p40
F3.1
sS'avg_val'
p41
F379.82283685788656
sS'height'
p42
F3.0370370370370368
sba(ipowercad.thermal.fast_thermal
ContourRect
p43
(dp44
g40
F11.866666666666667
sg41
F118.50699795106233
sg42
F11.655655655655655
sba(ipowercad.thermal.fast_thermal
ContourRect
p45
(dp46
g40
F20.633333333333336
sg41
F34.52490386664344
sg42
F20.274274274274273
sba(ipowercad.thermal.fast_thermal
ContourRect
p47
(dp48
g40
F29.400000000000006
sg41
F12.813542156608941
sg42
F29.057057057057055
sba(ipowercad.thermal.fast_thermal
ContourRect
p49
(dp50
g40
F38.16666666666667
sg41
F5.084456496638576
sg42
F37.83983983983984
sba(ipowercad.thermal.fast_thermal
ContourRect
p51
(dp52
g40
F46.93333333333334
sg41
F2.092659361564255
sg42
F46.54054054054054
sba(ipowercad.thermal.fast_thermal
ContourRect
p53
(dp54
g40
F55.70000000000001
sg41
F0.8851692386557196
sg42
F55.32332332332332
sba(ipowercad.thermal.fast_thermal
ContourRect
p55
(dp56
g40
F64.46666666666667
sg41
F0.3847024439376216
sg42
F64.18818818818818
sba(ipowercad.thermal.fast_thermal
ContourRect
p57
(dp58
g40
F73.23333333333333
sg41
F0.17336706580114133
sg42
F73.13513513513513
sba(ipowercad.thermal.fast_thermal
ContourRect
p59
(dp60
g40
F82.0
sg41
F0.09113061365021383
sg42
F82.0
sbasS'iso_top_avg_temp'
p61
F5.739345619318182
sS'die_power'
p62
F750.0
sS'die_res'
p63
F0.6071761452707745
sS'self_temp'
p64
F374.5153467008782
sS'iso_top_fluxes'
p65
(lp66
(ipowercad.thermal.fast_thermal
ContourRect
p67
(dp68
g40
F3.1
sg41
F31.100216143597603
sg42
F3.119119119119119
sba(ipowercad.thermal.fast_thermal
ContourRect
p69
(dp70
g40
F3.731831831831832
sg41
F17.71782890078991
sg42
F3.7757757757757755
sba(ipowercad.thermal.fast_thermal
ContourRect
p71
(dp72
g40
F4.363663663663663
sg41
F12.644649659581832
sg42
F4.678678678678678
sba(ipowercad.thermal.fast_thermal
ContourRect
p73
(dp74
g40
F4.995495495495495
sg41
F8.343056100979268
sg42
F5.4174174174174174
sba(ipowercad.thermal.fast_thermal
ContourRect
p75
(dp76
g40
F5.627327327327327
sg41
F4.972499403755513
sg42
F6.238238238238238
sba(ipowercad.thermal.fast_thermal
ContourRect
p77
(dp78
g40
F6.259159159159159
sg41
F2.4636206422919953
sg42
F7.0590590590590585
sba(ipowercad.thermal.fast_thermal
ContourRect
p79
(dp80
g40
F6.890990990990991
sg41
F0.7961096375938631
sg42
F7.961961961961961
sba(ipowercad.thermal.fast_thermal
ContourRect
p81
(dp82
g40
F7.522822822822823
sg41
F-0.021816731381073144
sg42
F20.11011011011011
sba(ipowercad.thermal.fast_thermal
ContourRect
p83
(dp84
g40
F8.154654654654655
sg41
F0.004872048722593987
sg42
F82.0
sba(ipowercad.thermal.fast_thermal
ContourRect
p85
(dp86
g40
F8.786486486486487
sg41
F-0.023235515303104068
sg42
F82.0
sbasbsS'conv_coeff'
p87
F50000.0
sS'dimensions'
p88
(lp89
cnumpy.core.multiarray
_reconstruct
p90
(cnumpy
ndarray
p91
(I0
tp92
S'b'
p93
tp94
Rp95
(I1
(I7
tp96
g15
I00
S'k\xbct\x93\x18\x04\xb6?\xcb\xa1E\xb6\xf3\xfd\xb4?\xcb\xa1E\xb6\xf3\xfd\xb4?\xcb\xa1E\xb6\xf3\xfd\xb4?\xcb\xa1E\xb6\xf3\xfd\xb4?\x14a\xc3\xd3+ei?\x14a\xc3\xd3+ei?'
p97
tp98
bag90
(g91
(I0
tp99
g93
tp100
Rp101
(I1
(I7
tp102
g15
I00
S'k\xbct\x93\x18\x04\xb6?\xcb\xa1E\xb6\xf3\xfd\xb4?\xcb\xa1E\xb6\xf3\xfd\xb4?\xcb\xa1E\xb6\xf3\xfd\xb4?\xcb\xa1E\xb6\xf3\xfd\xb4?\x14a\xc3\xd3+ei?\x14a\xc3\xd3+ei?'
p103
tp104
bag90
(g91
(I0
tp105
g93
tp106
Rp107
(I1
(I7
tp108
g15
I00
S'{\x14\xaeG\xe1zt?-C\x1c\xeb\xe26\x1a?-C\x1c\xeb\xe26*?\xf1h\xe3\x88\xb5\xf8D?-C\x1c\xeb\xe26*?-C\x1c\xeb\xe26\x1a?\xb2c#\x10\xaf\xeb7?'
p109
tp110
bag90
(g91
(I0
tp111
g93
tp112
Rp113
(I1
(I7
tp114
g15
I00
S'\xd8\xa6\x9e\xf2\xd5{g?\xb6\xce\xd2(7df?\xb6\xce\xd2(7df?\xb6\xce\xd2(7df?\xb6\xce\xd2(7df?\xa9M\x9c\xdc\xefP4?\xa9M\x9c\xdc\xefP4?'
p115
tp116
basb.