ccopy_reg
_reconstructor
p0
(cpowercad.thermal.elmer_characterize
CachedCharacterization
p1
c__builtin__
object
p2
Ntp3
Rp4
(dp5
S'sublayer_tf'
p6
(ipowercad.thermal.fast_thermal
SublayerThermalFeatures
p7
(dp8
S't_amb'
p9
F300.0
sS'sub_res'
p10
cnumpy.core.multiarray
scalar
p11
(cnumpy
dtype
p12
(S'f8'
p13
I0
I1
tp14
Rp15
(I3
S'<'
p16
NNNI-1
I-1
I0
tp17
bS'Fv\x05\x83\xf1\x93\x1d@'
p18
tp19
Rp20
sS'metal_thickness'
p21
F0.2
sS'metal_cond'
p22
F400.0
sbsS'materials'
p23
(lp24
(F9700.0
F190.0
tp25
a(F11020.0
F35.8
tp26
a(F8020.0
F400.0
tp27
a(F3250.0
F160.0
tp28
a(F8020.0
F400.0
tp29
a(F11020.0
F35.8
tp30
a(F3200.0
F120.0
tp31
asS'thermal_features'
p32
(ipowercad.thermal.fast_thermal
DieThermalFeatures
p33
(dp34
S'eff_power'
p35
F8.82312643644834
sS'iso_top_temps'
p36
(lp37
(ipowercad.thermal.fast_thermal
ContourRect
p38
(dp39
S'width'
p40
F3.018138138138138
sS'avg_val'
p41
F79.61358873588344
sS'height'
p42
F3.1
sba(ipowercad.thermal.fast_thermal
ContourRect
p43
(dp44
g40
F5.296536536536537
sg41
F76.86658743045473
sg42
F5.316666666666666
sba(ipowercad.thermal.fast_thermal
ContourRect
p45
(dp46
g40
F7.426986986986987
sg41
F75.38789211791202
sg42
F7.533333333333333
sba(ipowercad.thermal.fast_thermal
ContourRect
p47
(dp48
g40
F9.557437437437438
sg41
F74.70754420982627
sg42
F9.75
sba(ipowercad.thermal.fast_thermal
ContourRect
p49
(dp50
g40
F11.53993993993994
sg41
F74.31356971081534
sg42
F11.966666666666667
sba(ipowercad.thermal.fast_thermal
ContourRect
p51
(dp52
g40
F13.404084084084083
sg41
F74.05854276028276
sg42
F14.183333333333334
sba(ipowercad.thermal.fast_thermal
ContourRect
p53
(dp54
g40
F15.0611011011011
sg41
F73.88274909427493
sg42
F16.400000000000002
sba(ipowercad.thermal.fast_thermal
ContourRect
p55
(dp56
g40
F16.303863863863864
sg41
F73.76435564182525
sg42
F18.616666666666667
sba(ipowercad.thermal.fast_thermal
ContourRect
p57
(dp58
g40
F17.753753753753752
sg41
F73.6721561974944
sg42
F20.833333333333336
sba(ipowercad.thermal.fast_thermal
ContourRect
p59
(dp60
g40
F18.345545545545544
sg41
F73.6116866455776
sg42
F23.05
sbasS'iso_top_avg_temp'
p61
F73.94475981911059
sS'die_power'
p62
F10.0
sS'die_res'
p63
F0.6071761452707745
sS'self_temp'
p64
F79.54104852898041
sS'iso_top_fluxes'
p65
(lp66
(ipowercad.thermal.fast_thermal
ContourRect
p67
(dp68
g40
F3.077317317317317
sg41
F0.5418749891167571
sg42
F3.1
sba(ipowercad.thermal.fast_thermal
ContourRect
p69
(dp70
g40
F3.817057057057057
sg41
F0.24638954046835504
sg42
F3.9032365699032368
sba(ipowercad.thermal.fast_thermal
ContourRect
p71
(dp72
g40
F4.675155155155155
sg41
F0.10583525328314082
sg42
F4.706473139806473
sba(ipowercad.thermal.fast_thermal
ContourRect
p73
(dp74
g40
F5.355715715715715
sg41
F0.052209162472574705
sg42
F5.50970970970971
sba(ipowercad.thermal.fast_thermal
ContourRect
p75
(dp76
g40
F6.272992992992993
sg41
F0.03674889545863468
sg42
F6.312946279612946
sba(ipowercad.thermal.fast_thermal
ContourRect
p77
(dp78
g40
F7.131091091091091
sg41
F0.023416158501585
sg42
F7.116182849516182
sba(ipowercad.thermal.fast_thermal
ContourRect
p79
(dp80
g40
F7.693293293293293
sg41
F0.015287192415023035
sg42
F7.91941941941942
sba(ipowercad.thermal.fast_thermal
ContourRect
p81
(dp82
g40
F8.936056056056056
sg41
F0.010030992886446174
sg42
F8.722655989322655
sba(ipowercad.thermal.fast_thermal
ContourRect
p83
(dp84
g40
F11.184864864864865
sg41
F0.005943133704518397
sg42
F9.525892559225893
sba(ipowercad.thermal.fast_thermal
ContourRect
p85
(dp86
g40
F11.53993993993994
sg41
F0.004854953914630311
sg42
F10.329129129129129
sbasbsS'conv_coeff'
p87
F150.0
sS'dimensions'
p88
(lp89
cnumpy.core.multiarray
_reconstruct
p90
(cnumpy
ndarray
p91
(I0
tp92
S'b'
p93
tp94
Rp95
(I1
(I7
tp96
g15
I00
S';S\xe8\xbc\xc6.\xa1?\xf7;\x14\x05\xfaD\x9e?\xf7;\x14\x05\xfaD\x9e?\xf7;\x14\x05\xfaD\x9e?x\xd1W\x90f,\x9a?\x14a\xc3\xd3+ei?\x14a\xc3\xd3+ei?'
p97
tp98
bag90
(g91
(I0
tp99
g93
tp100
Rp101
(I1
(I7
tp102
g15
I00
S'\xfb\\m\xc5\xfe\xb2\x9b?|\xf2\xb0Pk\x9a\x97?|\xf2\xb0Pk\x9a\x97?|\xf2\xb0Pk\x9a\x97?\xfd\x87\xf4\xdb\xd7\x81\x93?\x14a\xc3\xd3+ei?\x14a\xc3\xd3+ei?'
p103
tp104
bag90
(g91
(I0
tp105
g93
tp106
Rp107
(I1
(I7
tp108
g15
I00
S'{\x14\xaeG\xe1zt?-C\x1c\xeb\xe26\x1a?-C\x1c\xeb\xe26*?\xf1h\xe3\x88\xb5\xf8D?-C\x1c\xeb\xe26*?-C\x1c\xeb\xe26\x1a?\xb2c#\x10\xaf\xeb7?'
p109
tp110
bag90
(g91
(I0
tp111
g93
tp112
Rp113
(I1
(I7
tp114
g15
I00
S'.c0l\xba\x8bM?\xa6\x02\x01E?-I?\xa6\x02\x01E?-I?\xa6\x02\x01E?-I?\xa6\x02\x01E?-I?\xa9M\x9c\xdc\xefP4?\xa9M\x9c\xdc\xefP4?'
p115
tp116
basb.