ccopy_reg
_reconstructor
p0
(cpowercad.thermal.elmer_characterize
CachedCharacterization
p1
c__builtin__
object
p2
Ntp3
Rp4
(dp5
S'sublayer_tf'
p6
(ipowercad.thermal.fast_thermal
SublayerThermalFeatures
p7
(dp8
S't_amb'
p9
F300.0
sS'sub_res'
p10
cnumpy.core.multiarray
scalar
p11
(cnumpy
dtype
p12
(S'f8'
p13
I0
I1
tp14
Rp15
(I3
S'<'
p16
NNNI-1
I-1
I0
tp17
bS'\xf6h\xb6\x14\xf5\x9dv?'
p18
tp19
Rp20
sS'metal_thickness'
p21
F0.2
sS'metal_cond'
p22
F400.0
sbsS'materials'
p23
(lp24
(F9700.0
F190.0
tp25
a(F11020.0
F35.8
tp26
a(F8020.0
F400.0
tp27
a(F3250.0
F160.0
tp28
a(F8020.0
F400.0
tp29
a(F11020.0
F35.8
tp30
a(F3200.0
F120.0
tp31
asS'thermal_features'
p32
(ipowercad.thermal.fast_thermal
DieThermalFeatures
p33
(dp34
S'eff_power'
p35
F88.92277964019995
sS'iso_top_temps'
p36
(lp37
(ipowercad.thermal.fast_thermal
ContourRect
p38
(dp39
S'width'
p40
F3.1
sS'avg_val'
p41
F51.29892705274111
sS'height'
p42
F2.9279279279279278
sba(ipowercad.thermal.fast_thermal
ContourRect
p43
(dp44
g40
F11.08888888888889
sg41
F15.082727359350228
sg42
F11.26126126126126
sba(ipowercad.thermal.fast_thermal
ContourRect
p45
(dp46
g40
F19.07777777777778
sg41
F2.862190787846155
sg42
F19.51951951951952
sba(ipowercad.thermal.fast_thermal
ContourRect
p47
(dp48
g40
F27.06666666666667
sg41
F0.5959695675813816
sg42
F26.876876876876878
sba(ipowercad.thermal.fast_thermal
ContourRect
p49
(dp50
g40
F35.05555555555556
sg41
F0.13666395008827212
sg42
F33.78378378378378
sba(ipowercad.thermal.fast_thermal
ContourRect
p51
(dp52
g40
F43.04444444444445
sg41
F0.030573886689634622
sg42
F40.54054054054054
sba(ipowercad.thermal.fast_thermal
ContourRect
p53
(dp54
g40
F51.03333333333334
sg41
F0.004769637043119084
sg42
F48.94894894894895
sba(ipowercad.thermal.fast_thermal
ContourRect
p55
(dp56
g40
F59.02222222222223
sg41
F2.189988453671448e-05
sg42
F68.24324324324324
sba(ipowercad.thermal.fast_thermal
ContourRect
p57
(dp58
g40
F67.01111111111112
sg41
F-0.0012748817913395248
sg42
F73.34834834834835
sba(ipowercad.thermal.fast_thermal
ContourRect
p59
(dp60
g40
F75.0
sg41
F-0.003200582207453577
sg42
F75.0
sbasS'iso_top_avg_temp'
p61
F0.552173361520559
sS'die_power'
p62
F100.0
sS'die_res'
p63
F0.6071761452707745
sS'self_temp'
p64
F49.2886701095741
sS'iso_top_fluxes'
p65
(lp66
(ipowercad.thermal.fast_thermal
ContourRect
p67
(dp68
g40
F3.1
sg41
F4.255647177316038
sg42
F2.8528528528528527
sba(ipowercad.thermal.fast_thermal
ContourRect
p69
(dp70
g40
F3.6997664330997666
sg41
F2.8210562475300724
sg42
F3.3783783783783785
sba(ipowercad.thermal.fast_thermal
ContourRect
p71
(dp72
g40
F4.299532866199533
sg41
F2.1335775764769394
sg42
F3.978978978978979
sba(ipowercad.thermal.fast_thermal
ContourRect
p73
(dp74
g40
F4.899299299299299
sg41
F1.4860245495300346
sg42
F4.654654654654655
sba(ipowercad.thermal.fast_thermal
ContourRect
p75
(dp76
g40
F5.499065732399066
sg41
F0.9672092623857641
sg42
F5.33033033033033
sba(ipowercad.thermal.fast_thermal
ContourRect
p77
(dp78
g40
F6.098832165498832
sg41
F0.5791542213817402
sg42
F6.006006006006006
sba(ipowercad.thermal.fast_thermal
ContourRect
p79
(dp80
g40
F6.698598598598599
sg41
F0.323204266856776
sg42
F6.681681681681682
sba(ipowercad.thermal.fast_thermal
ContourRect
p81
(dp82
g40
F7.298365031698365
sg41
F0.01498976252151644
sg42
F75.0
sba(ipowercad.thermal.fast_thermal
ContourRect
p83
(dp84
g40
F7.898131464798132
sg41
F0.02416418754637956
sg42
F75.0
sba(ipowercad.thermal.fast_thermal
ContourRect
p85
(dp86
g40
F8.497897897897898
sg41
F0.01991895538434483
sg42
F75.0
sbasbsS'conv_coeff'
p87
F50000.0
sS'dimensions'
p88
(lp89
cnumpy.core.multiarray
_reconstruct
p90
(cnumpy
ndarray
p91
(I0
tp92
S'b'
p93
tp94
Rp95
(I1
(I7
tp96
g15
I00
S'\xd3Mb\x10X9\xb4?333333\xb3?333333\xb3?333333\xb3?\x94\x18\x04V\x0e-\xb2?\x14a\xc3\xd3+ei?\x14a\xc3\xd3+ei?'
p97
tp98
bag90
(g91
(I0
tp99
g93
tp100
Rp101
(I1
(I7
tp102
g15
I00
S'\xd3Mb\x10X9\xb4?333333\xb3?333333\xb3?333333\xb3?\x94\x18\x04V\x0e-\xb2?\x14a\xc3\xd3+ei?\x14a\xc3\xd3+ei?'
p103
tp104
bag90
(g91
(I0
tp105
g93
tp106
Rp107
(I1
(I7
tp108
g15
I00
S'\xfc\xa9\xf1\xd2MbP?-C\x1c\xeb\xe26\x1a?-C\x1c\xeb\xe26*?\xf1h\xe3\x88\xb5\xf8D?-C\x1c\xeb\xe26*?-C\x1c\xeb\xe26\x1a?\xb2c#\x10\xaf\xeb7?'
p109
tp110
bag90
(g91
(I0
tp111
g93
tp112
Rp113
(I1
(I7
tp114
g15
I00
S'\x9d\xecy\x11\x80\x92e?{\x14\xaeG\xe1zd?{\x14\xaeG\xe1zd?{\x14\xaeG\xe1zd?{\x14\xaeG\xe1zd?\xa9M\x9c\xdc\xefP4?\xa9M\x9c\xdc\xefP4?'
p115
tp116
basb.