ccopy_reg
_reconstructor
p0
(cpowercad.thermal.elmer_characterize
CachedCharacterization
p1
c__builtin__
object
p2
Ntp3
Rp4
(dp5
S'sublayer_tf'
p6
(ipowercad.thermal.fast_thermal
SublayerThermalFeatures
p7
(dp8
S't_amb'
p9
F300.0
sS'sub_res'
p10
cnumpy.core.multiarray
scalar
p11
(cnumpy
dtype
p12
(S'f8'
p13
I0
I1
tp14
Rp15
(I3
S'<'
p16
NNNI-1
I-1
I0
tp17
bS'\x9a\xbelu\x18D\xfd?'
p18
tp19
Rp20
sS'metal_thickness'
p21
F0.2
sS'metal_cond'
p22
F400.0
sbsS'materials'
p23
(lp24
(F9700.0
F190.0
tp25
a(F11020.0
F35.8
tp26
a(F8020.0
F400.0
tp27
a(F3250.0
F160.0
tp28
a(F8020.0
F400.0
tp29
a(F11020.0
F35.8
tp30
a(F3200.0
F120.0
tp31
asS'thermal_features'
p32
(ipowercad.thermal.fast_thermal
DieThermalFeatures
p33
(dp34
S'eff_power'
p35
F8.083632718531797
sS'iso_top_temps'
p36
(lp37
(ipowercad.thermal.fast_thermal
ContourRect
p38
(dp39
S'width'
p40
F3.1
sS'avg_val'
p41
F24.589314240425374
sS'height'
p42
F3.1531531531531534
sba(ipowercad.thermal.fast_thermal
ContourRect
p43
(dp44
g40
F7.199999999999999
sg41
F21.242263282771493
sg42
F7.057057057057057
sba(ipowercad.thermal.fast_thermal
ContourRect
p45
(dp46
g40
F11.299999999999999
sg41
F19.714238329233392
sg42
F11.211211211211213
sba(ipowercad.thermal.fast_thermal
ContourRect
p47
(dp48
g40
F15.399999999999999
sg41
F19.094161895328387
sg42
F15.365365365365367
sba(ipowercad.thermal.fast_thermal
ContourRect
p49
(dp50
g40
F19.5
sg41
F18.72686751059274
sg42
F19.46946946946947
sba(ipowercad.thermal.fast_thermal
ContourRect
p51
(dp52
g40
F23.6
sg41
F18.47022791920878
sg42
F23.523523523523526
sba(ipowercad.thermal.fast_thermal
ContourRect
p53
(dp54
g40
F27.7
sg41
F18.27611753048727
sg42
F27.57757757757758
sba(ipowercad.thermal.fast_thermal
ContourRect
p55
(dp56
g40
F31.799999999999997
sg41
F18.124888228221693
sg42
F31.531531531531535
sba(ipowercad.thermal.fast_thermal
ContourRect
p57
(dp58
g40
F35.9
sg41
F18.010797504504
sg42
F34.98498498498499
sba(ipowercad.thermal.fast_thermal
ContourRect
p59
(dp60
g40
F40.0
sg41
F17.922172208025604
sg42
F38.38838838838839
sbasS'iso_top_avg_temp'
p61
F18.291248881250002
sS'die_power'
p62
F10.0
sS'die_res'
p63
F0.6071761452707745
sS'self_temp'
p64
F24.589314240425374
sS'iso_top_fluxes'
p65
(lp66
(ipowercad.thermal.fast_thermal
ContourRect
p67
(dp68
g40
F3.1
sg41
F0.5054921615664072
sg42
F3.2032032032032034
sba(ipowercad.thermal.fast_thermal
ContourRect
p69
(dp70
g40
F3.4734734734734736
sg41
F0.277782927835977
sg42
F3.5535535535535536
sba(ipowercad.thermal.fast_thermal
ContourRect
p71
(dp72
g40
F3.846946946946947
sg41
F0.21183845825649983
sg42
F3.8538538538538543
sba(ipowercad.thermal.fast_thermal
ContourRect
p73
(dp74
g40
F4.22042042042042
sg41
F0.1513643872292368
sg42
F4.2042042042042045
sba(ipowercad.thermal.fast_thermal
ContourRect
p75
(dp76
g40
F4.593893893893894
sg41
F0.10066970862878949
sg42
F4.604604604604605
sba(ipowercad.thermal.fast_thermal
ContourRect
p77
(dp78
g40
F4.967367367367367
sg41
F0.06618607191021054
sg42
F4.954954954954955
sba(ipowercad.thermal.fast_thermal
ContourRect
p79
(dp80
g40
F5.3408408408408405
sg41
F0.04362929839131487
sg42
F5.355355355355356
sba(ipowercad.thermal.fast_thermal
ContourRect
p81
(dp82
g40
F5.714314314314314
sg41
F0.030667754276411083
sg42
F5.705705705705706
sba(ipowercad.thermal.fast_thermal
ContourRect
p83
(dp84
g40
F6.0877877877877875
sg41
F0.01373791040389182
sg42
F11.211211211211213
sba(ipowercad.thermal.fast_thermal
ContourRect
p85
(dp86
g40
F6.461261261261261
sg41
F0.011015664136210222
sg42
F11.511511511511513
sbasbsS'conv_coeff'
p87
F150.0
sS'dimensions'
p88
(lp89
cnumpy.core.multiarray
_reconstruct
p90
(cnumpy
ndarray
p91
(I0
tp92
S'b'
p93
tp94
Rp95
(I1
(I7
tp96
g15
I00
S'X9\xb4\xc8v\xbe\xaf?{\x14\xaeG\xe1z\xa4?{\x14\xaeG\xe1z\xa4?{\x14\xaeG\xe1z\xa4?<\xdfO\x8d\x97n\xa2?\x14a\xc3\xd3+ei?\x14a\xc3\xd3+ei?'
p97
tp98
bag90
(g91
(I0
tp99
g93
tp100
Rp101
(I1
(I7
tp102
g15
I00
S'\xb8\x1e\x85\xebQ\xb8\xae?\x9a\x99\x99\x99\x99\x99\xa9?\x9a\x99\x99\x99\x99\x99\xa9?\x9a\x99\x99\x99\x99\x99\xa9?Zd;\xdfO\x8d\xa7?\x14a\xc3\xd3+ei?\x14a\xc3\xd3+ei?'
p103
tp104
bag90
(g91
(I0
tp105
g93
tp106
Rp107
(I1
(I7
tp108
g15
I00
S'{\x14\xaeG\xe1zt?-C\x1c\xeb\xe26\x1a?-C\x1c\xeb\xe26*?\xf1h\xe3\x88\xb5\xf8D?-C\x1c\xeb\xe26*?-C\x1c\xeb\xe26\x1a?\xb2c#\x10\xaf\xeb7?'
p109
tp110
bag90
(g91
(I0
tp111
g93
tp112
Rp113
(I1
(I7
tp114
g15
I00
S'\xfc\xa9\xf1\xd2Mb`?\xa5\xe2\xec\xc3g\xd8U?\xa5\xe2\xec\xc3g\xd8U?\xa5\xe2\xec\xc3g\xd8U?\xa5\xe2\xec\xc3g\xd8U?\xa9M\x9c\xdc\xefP4?\xa9M\x9c\xdc\xefP4?'
p115
tp116
basb.