ccopy_reg
_reconstructor
p0
(cpowercad.thermal.elmer_characterize
CachedCharacterization
p1
c__builtin__
object
p2
Ntp3
Rp4
(dp5
S'sublayer_tf'
p6
(ipowercad.thermal.fast_thermal
SublayerThermalFeatures
p7
(dp8
S't_amb'
p9
F300.0
sS'sub_res'
p10
cnumpy.core.multiarray
scalar
p11
(cnumpy
dtype
p12
(S'f8'
p13
I0
I1
tp14
Rp15
(I3
S'<'
p16
NNNI-1
I-1
I0
tp17
bS'\xf0\x94\xf4P\x90\x15\xff?'
p18
tp19
Rp20
sS'metal_thickness'
p21
F0.2
sS'metal_cond'
p22
F400.0
sbsS'materials'
p23
(lp24
(F9700.0
F190.0
tp25
a(F11020.0
F35.8
tp26
a(F8020.0
F400.0
tp27
a(F3250.0
F160.0
tp28
a(F8020.0
F400.0
tp29
a(F11020.0
F35.8
tp30
a(F3200.0
F120.0
tp31
asS'thermal_features'
p32
(ipowercad.thermal.fast_thermal
DieThermalFeatures
p33
(dp34
S'eff_power'
p35
F654.055093234915
sS'iso_top_temps'
p36
(lp37
(ipowercad.thermal.fast_thermal
ContourRect
p38
(dp39
S'width'
p40
F3.1
sS'avg_val'
p41
F1946.5954612945604
sS'height'
p42
F3.003003003003003
sba(ipowercad.thermal.fast_thermal
ContourRect
p43
(dp44
g40
F8.311111111111112
sg41
F1669.115277352505
sg42
F8.168168168168169
sba(ipowercad.thermal.fast_thermal
ContourRect
p45
(dp46
g40
F13.522222222222222
sg41
F1555.3007632420665
sg42
F13.393393393393394
sba(ipowercad.thermal.fast_thermal
ContourRect
p47
(dp48
g40
F18.733333333333334
sg41
F1512.0250096506056
sg42
F18.37837837837838
sba(ipowercad.thermal.fast_thermal
ContourRect
p49
(dp50
g40
F23.944444444444446
sg41
F1486.5959259898189
sg42
F23.183183183183182
sba(ipowercad.thermal.fast_thermal
ContourRect
p51
(dp52
g40
F29.15555555555556
sg41
F1469.2559749366608
sg42
F27.62762762762763
sba(ipowercad.thermal.fast_thermal
ContourRect
p53
(dp54
g40
F34.36666666666667
sg41
F1456.8639166398304
sg42
F31.71171171171171
sba(ipowercad.thermal.fast_thermal
ContourRect
p55
(dp56
g40
F39.57777777777778
sg41
F1448.0016316432818
sg42
F35.1951951951952
sba(ipowercad.thermal.fast_thermal
ContourRect
p57
(dp58
g40
F44.78888888888889
sg41
F1442.110796873534
sg42
F37.65765765765766
sba(ipowercad.thermal.fast_thermal
ContourRect
p59
(dp60
g40
F50.0
sg41
F1438.5871690114384
sg42
F39.21921921921922
sbasS'iso_top_avg_temp'
p61
F1457.07343785669
sS'die_power'
p62
F750.0
sS'die_res'
p63
F0.6071761452707745
sS'self_temp'
p64
F1937.9132856272852
sS'iso_top_fluxes'
p65
(lp66
(ipowercad.thermal.fast_thermal
ContourRect
p67
(dp68
g40
F3.1
sg41
F37.8459725167621
sg42
F3.063063063063063
sba(ipowercad.thermal.fast_thermal
ContourRect
p69
(dp70
g40
F3.6894450005561117
sg41
F20.693362563202715
sg42
F3.6636636636636637
sba(ipowercad.thermal.fast_thermal
ContourRect
p71
(dp72
g40
F4.278890001112224
sg41
F13.78422467232695
sg42
F4.2642642642642645
sba(ipowercad.thermal.fast_thermal
ContourRect
p73
(dp74
g40
F4.868335001668335
sg41
F8.5719070937837
sg42
F4.744744744744745
sba(ipowercad.thermal.fast_thermal
ContourRect
p75
(dp76
g40
F5.457780002224447
sg41
F4.888647588920498
sg42
F5.405405405405405
sba(ipowercad.thermal.fast_thermal
ContourRect
p77
(dp78
g40
F6.047225002780559
sg41
F2.4851262690195637
sg42
F6.306306306306306
sba(ipowercad.thermal.fast_thermal
ContourRect
p79
(dp80
g40
F6.63667000333667
sg41
F1.2427711502381327
sg42
F9.30930930930931
sba(ipowercad.thermal.fast_thermal
ContourRect
p81
(dp82
g40
F7.226115003892781
sg41
F0.8336351673622859
sg42
F10.39039039039039
sba(ipowercad.thermal.fast_thermal
ContourRect
p83
(dp84
g40
F7.815560004448894
sg41
F0.5835320451555237
sg42
F11.11111111111111
sba(ipowercad.thermal.fast_thermal
ContourRect
p85
(dp86
g40
F8.405005005005005
sg41
F0.5694878980122008
sg42
F11.29129129129129
sbasbsS'conv_coeff'
p87
F150.0
sS'dimensions'
p88
(lp89
cnumpy.core.multiarray
_reconstruct
p90
(cnumpy
ndarray
p91
(I0
tp92
S'b'
p93
tp94
Rp95
(I1
(I7
tp96
g15
I00
S'\xd9\xce\xf7S\xe3\xa5\xab?\x9a\x99\x99\x99\x99\x99\xa9?\x9a\x99\x99\x99\x99\x99\xa9?\x9a\x99\x99\x99\x99\x99\xa9?Zd;\xdfO\x8d\xa7?\x14a\xc3\xd3+ei?\x14a\xc3\xd3+ei?'
p97
tp98
bag90
(g91
(I0
tp99
g93
tp100
Rp101
(I1
(I7
tp102
g15
I00
S'\xfc\xa9\xf1\xd2Mb\xb0?\xb8\x1e\x85\xebQ\xb8\xae?\xb8\x1e\x85\xebQ\xb8\xae?\xb8\x1e\x85\xebQ\xb8\xae?y\xe9&1\x08\xac\xac?\x14a\xc3\xd3+ei?\x14a\xc3\xd3+ei?'
p103
tp104
bag90
(g91
(I0
tp105
g93
tp106
Rp107
(I1
(I7
tp108
g15
I00
S'{\x14\xaeG\xe1zt?-C\x1c\xeb\xe26\x1a?-C\x1c\xeb\xe26*?\xf1h\xe3\x88\xb5\xf8D?-C\x1c\xeb\xe26*?-C\x1c\xeb\xe26\x1a?\xb2c#\x10\xaf\xeb7?'
p109
tp110
bag90
(g91
(I0
tp111
g93
tp112
Rp113
(I1
(I7
tp114
g15
I00
S'\x93\xcb\x7fH\xbf}]?O\x1b\xe8\xb4\x81N[?O\x1b\xe8\xb4\x81N[?O\x1b\xe8\xb4\x81N[?O\x1b\xe8\xb4\x81N[?\xa9M\x9c\xdc\xefP4?\xa9M\x9c\xdc\xefP4?'
p115
tp116
basb.