ccopy_reg
_reconstructor
p0
(cpowercad.thermal.elmer_characterize
CachedCharacterization
p1
c__builtin__
object
p2
Ntp3
Rp4
(dp5
S'sublayer_tf'
p6
(ipowercad.thermal.fast_thermal
SublayerThermalFeatures
p7
(dp8
S't_amb'
p9
F300.0
sS'sub_res'
p10
cnumpy.core.multiarray
scalar
p11
(cnumpy
dtype
p12
(S'f8'
p13
I0
I1
tp14
Rp15
(I3
S'<'
p16
NNNI-1
I-1
I0
tp17
bS'\x04\xd6\xc3\xaa\xba\x1b\x98?'
p18
tp19
Rp20
sS'metal_thickness'
p21
F0.2
sS'metal_cond'
p22
F400.0
sbsS'materials'
p23
(lp24
(F9700.0
F190.0
tp25
a(F11020.0
F35.8
tp26
a(F8020.0
F400.0
tp27
a(F3250.0
F160.0
tp28
a(F8020.0
F400.0
tp29
a(F11020.0
F35.8
tp30
a(F3200.0
F120.0
tp31
asS'thermal_features'
p32
(ipowercad.thermal.fast_thermal
DieThermalFeatures
p33
(dp34
S'eff_power'
p35
F604.0036384672297
sS'iso_top_temps'
p36
(lp37
(ipowercad.thermal.fast_thermal
ContourRect
p38
(dp39
S'width'
p40
F3.071071071071071
sS'avg_val'
p41
F439.3768683321851
sS'height'
p42
F3.1
sba(ipowercad.thermal.fast_thermal
ContourRect
p43
(dp44
g40
F7.391391391391391
sg41
F190.24233349973977
sg42
F7.4222222222222225
sba(ipowercad.thermal.fast_thermal
ContourRect
p45
(dp46
g40
F11.65965965965966
sg41
F81.58155897812658
sg42
F11.744444444444444
sba(ipowercad.thermal.fast_thermal
ContourRect
p47
(dp48
g40
F15.97997997997998
sg41
F43.952461010597
sg42
F16.066666666666666
sba(ipowercad.thermal.fast_thermal
ContourRect
p49
(dp50
g40
F20.3003003003003
sg41
F25.79827838497365
sg42
F20.38888888888889
sba(ipowercad.thermal.fast_thermal
ContourRect
p51
(dp52
g40
F24.516516516516518
sg41
F15.914714355730336
sg42
F24.711111111111112
sba(ipowercad.thermal.fast_thermal
ContourRect
p53
(dp54
g40
F28.62862862862863
sg41
F10.179707158848995
sg42
F29.03333333333333
sba(ipowercad.thermal.fast_thermal
ContourRect
p55
(dp56
g40
F32.428428428428425
sg41
F6.785104608087335
sg42
F33.355555555555554
sba(ipowercad.thermal.fast_thermal
ContourRect
p57
(dp58
g40
F35.6036036036036
sg41
F4.811114690297715
sg42
F37.67777777777778
sba(ipowercad.thermal.fast_thermal
ContourRect
p59
(dp60
g40
F37.269269269269266
sg41
F3.8153548058733566
sg42
F42.0
sbasS'iso_top_avg_temp'
p61
F17.65745878648821
sS'die_power'
p62
F750.0
sS'die_res'
p63
F0.6071761452707745
sS'self_temp'
p64
F437.05196663802064
sS'iso_top_fluxes'
p65
(lp66
(ipowercad.thermal.fast_thermal
ContourRect
p67
(dp68
g40
F3.5395395395395397
sg41
F33.36134507445693
sg42
F3.1
sba(ipowercad.thermal.fast_thermal
ContourRect
p69
(dp70
g40
F3.903903903903904
sg41
F17.871233695830952
sg42
F3.3942053164275388
sba(ipowercad.thermal.fast_thermal
ContourRect
p71
(dp72
g40
F4.268268268268268
sg41
F14.31309812135011
sg42
F3.6884106328550774
sba(ipowercad.thermal.fast_thermal
ContourRect
p73
(dp74
g40
F4.632632632632633
sg41
F11.315638418882699
sg42
F3.982615949282616
sba(ipowercad.thermal.fast_thermal
ContourRect
p75
(dp76
g40
F5.101101101101101
sg41
F8.495987777922494
sg42
F4.276821265710154
sba(ipowercad.thermal.fast_thermal
ContourRect
p77
(dp78
g40
F5.673673673673673
sg41
F5.9539578045330765
sg42
F4.571026582137693
sba(ipowercad.thermal.fast_thermal
ContourRect
p79
(dp80
g40
F6.818818818818818
sg41
F3.4812869100891524
sg42
F4.8652318985652325
sba(ipowercad.thermal.fast_thermal
ContourRect
p81
(dp82
g40
F11.087087087087086
sg41
F1.2375218732071527
sg42
F5.159437214992771
sba(ipowercad.thermal.fast_thermal
ContourRect
p83
(dp84
g40
F52.0
sg41
F0.0807914004235687
sg42
F5.453642531420309
sba(ipowercad.thermal.fast_thermal
ContourRect
p85
(dp86
g40
F52.0
sg41
F0.2990205653180192
sg42
F5.747847847847848
sbasbsS'conv_coeff'
p87
F50000.0
sS'dimensions'
p88
(lp89
cnumpy.core.multiarray
_reconstruct
p90
(cnumpy
ndarray
p91
(I0
tp92
S'b'
p93
tp94
Rp95
(I1
(I7
tp96
g15
I00
S'y\xe9&1\x08\xac\xac?:\xb4\xc8v\xbe\x9f\xaa?:\xb4\xc8v\xbe\x9f\xaa?:\xb4\xc8v\xbe\x9f\xaa?:\xb4\xc8v\xbe\x9f\xaa?\x14a\xc3\xd3+ei?\x14a\xc3\xd3+ei?'
p97
tp98
bag90
(g91
(I0
tp99
g93
tp100
Rp101
(I1
(I7
tp102
g15
I00
S'Zd;\xdfO\x8d\xa7?\x1b/\xdd$\x06\x81\xa5?\x1b/\xdd$\x06\x81\xa5?\x1b/\xdd$\x06\x81\xa5?\x1b/\xdd$\x06\x81\xa5?\x14a\xc3\xd3+ei?\x14a\xc3\xd3+ei?'
p103
tp104
bag90
(g91
(I0
tp105
g93
tp106
Rp107
(I1
(I7
tp108
g15
I00
S'{\x14\xaeG\xe1zt?-C\x1c\xeb\xe26\x1a?-C\x1c\xeb\xe26*?\xf1h\xe3\x88\xb5\xf8D?-C\x1c\xeb\xe26*?-C\x1c\xeb\xe26\x1a?\xb2c#\x10\xaf\xeb7?'
p109
tp110
bag90
(g91
(I0
tp111
g93
tp112
Rp113
(I1
(I7
tp114
g15
I00
S'\x0bkP!D\x1fY?\xc7\xba\xb8\x8d\x06\xf0V?\xc7\xba\xb8\x8d\x06\xf0V?\xc7\xba\xb8\x8d\x06\xf0V?\xc7\xba\xb8\x8d\x06\xf0V?\xa9M\x9c\xdc\xefP4?\xa9M\x9c\xdc\xefP4?'
p115
tp116
basb.