ccopy_reg
_reconstructor
p0
(cpowercad.thermal.elmer_characterize
CachedCharacterization
p1
c__builtin__
object
p2
Ntp3
Rp4
(dp5
S'sublayer_tf'
p6
(ipowercad.thermal.fast_thermal
SublayerThermalFeatures
p7
(dp8
S't_amb'
p9
F300.0
sS'sub_res'
p10
cnumpy.core.multiarray
scalar
p11
(cnumpy
dtype
p12
(S'f8'
p13
I0
I1
tp14
Rp15
(I3
S'<'
p16
NNNI-1
I-1
I0
tp17
bS'\xb8>y\xa4\xf6{\x81?'
p18
tp19
Rp20
sS'metal_thickness'
p21
F0.2
sS'metal_cond'
p22
F400.0
sbsS'materials'
p23
(lp24
(F9700.0
F190.0
tp25
a(F11020.0
F35.8
tp26
a(F8020.0
F400.0
tp27
a(F3250.0
F160.0
tp28
a(F8020.0
F400.0
tp29
a(F11020.0
F35.8
tp30
a(F3200.0
F120.0
tp31
asS'thermal_features'
p32
(ipowercad.thermal.fast_thermal
DieThermalFeatures
p33
(dp34
S'eff_power'
p35
F85.1320568432765
sS'iso_top_temps'
p36
(lp37
(ipowercad.thermal.fast_thermal
ContourRect
p38
(dp39
S'width'
p40
F3.1
sS'avg_val'
p41
F56.055492097759725
sS'height'
p42
F3.123123123123123
sba(ipowercad.thermal.fast_thermal
ContourRect
p43
(dp44
g40
F9.010866421977534
sg41
F18.584940003787395
sg42
F9.42942942942943
sba(ipowercad.thermal.fast_thermal
ContourRect
p45
(dp46
g40
F14.921732843955066
sg41
F5.050780241822341
sg42
F15.075075075075075
sba(ipowercad.thermal.fast_thermal
ContourRect
p47
(dp48
g40
F20.8325992659326
sg41
F1.5669267765598702
sg42
F21.02102102102102
sba(ipowercad.thermal.fast_thermal
ContourRect
p49
(dp50
g40
F26.743465687910135
sg41
F0.5108657202299562
sg42
F26.906906906906908
sba(ipowercad.thermal.fast_thermal
ContourRect
p51
(dp52
g40
F32.65433210988767
sg41
F0.1703020826686192
sg42
F32.792792792792795
sba(ipowercad.thermal.fast_thermal
ContourRect
p53
(dp54
g40
F38.5651985318652
sg41
F0.0520872634166104
sg42
F39.15915915915916
sba(ipowercad.thermal.fast_thermal
ContourRect
p55
(dp56
g40
F44.47606495384274
sg41
F0.005456646710858593
sg42
F45.46546546546546
sba(ipowercad.thermal.fast_thermal
ContourRect
p57
(dp58
g40
F50.38693137582027
sg41
F-0.016340253720595665
sg42
F48.228228228228225
sba(ipowercad.thermal.fast_thermal
ContourRect
p59
(dp60
g40
F56.2977977977978
sg41
F-0.020586927379770102
sg42
F57.11711711711712
sbasS'iso_top_avg_temp'
p61
F0.8537222761474794
sS'die_power'
p62
F100.0
sS'die_res'
p63
F0.6071761452707745
sS'self_temp'
p64
F56.055492097759725
sS'iso_top_fluxes'
p65
(lp66
(ipowercad.thermal.fast_thermal
ContourRect
p67
(dp68
g40
F3.1
sg41
F4.77200644702863
sg42
F2.7027027027027026
sba(ipowercad.thermal.fast_thermal
ContourRect
p69
(dp70
g40
F3.707540874207541
sg41
F3.0090920347642185
sg42
F3.3633633633633635
sba(ipowercad.thermal.fast_thermal
ContourRect
p71
(dp72
g40
F4.315081748415082
sg41
F2.1396720451235525
sg42
F3.843843843843844
sba(ipowercad.thermal.fast_thermal
ContourRect
p73
(dp74
g40
F4.922622622622622
sg41
F1.4396687873380551
sg42
F4.324324324324325
sba(ipowercad.thermal.fast_thermal
ContourRect
p75
(dp76
g40
F5.530163496830164
sg41
F0.8793699965075309
sg42
F4.924924924924925
sba(ipowercad.thermal.fast_thermal
ContourRect
p77
(dp78
g40
F6.137704371037705
sg41
F0.46926775508414753
sg42
F5.525525525525525
sba(ipowercad.thermal.fast_thermal
ContourRect
p79
(dp80
g40
F6.745245245245245
sg41
F0.10329332366120621
sg42
F11.891891891891891
sba(ipowercad.thermal.fast_thermal
ContourRect
p81
(dp82
g40
F7.3527861194527855
sg41
F0.04175694599467569
sg42
F18.07807807807808
sba(ipowercad.thermal.fast_thermal
ContourRect
p83
(dp84
g40
F7.960326993660328
sg41
F0.003781893862074192
sg42
F60.0
sba(ipowercad.thermal.fast_thermal
ContourRect
p85
(dp86
g40
F8.567867867867868
sg41
F0.016768581721747538
sg42
F60.0
sbasbsS'conv_coeff'
p87
F50000.0
sS'dimensions'
p88
(lp89
cnumpy.core.multiarray
_reconstruct
p90
(cnumpy
ndarray
p91
(I0
tp92
S'b'
p93
tp94
Rp95
(I1
(I7
tp96
g15
I00
S'\xfc\xa9\xf1\xd2Mb\xb0?\xb8\x1e\x85\xebQ\xb8\xae?\xb8\x1e\x85\xebQ\xb8\xae?\xb8\x1e\x85\xebQ\xb8\xae?y\xe9&1\x08\xac\xac?\x14a\xc3\xd3+ei?\x14a\xc3\xd3+ei?'
p97
tp98
bag90
(g91
(I0
tp99
g93
tp100
Rp101
(I1
(I7
tp102
g15
I00
S'\xfc\xa9\xf1\xd2Mb\xb0?\xb8\x1e\x85\xebQ\xb8\xae?\xb8\x1e\x85\xebQ\xb8\xae?\xb8\x1e\x85\xebQ\xb8\xae?y\xe9&1\x08\xac\xac?\x14a\xc3\xd3+ei?\x14a\xc3\xd3+ei?'
p103
tp104
bag90
(g91
(I0
tp105
g93
tp106
Rp107
(I1
(I7
tp108
g15
I00
S'\xfc\xa9\xf1\xd2MbP?-C\x1c\xeb\xe26\x1a?-C\x1c\xeb\xe26*?\xf1h\xe3\x88\xb5\xf8D?-C\x1c\xeb\xe26*?-C\x1c\xeb\xe26\x1a?\xb2c#\x10\xaf\xeb7?'
p109
tp110
bag90
(g91
(I0
tp111
g93
tp112
Rp113
(I1
(I7
tp114
g15
I00
S'\x1e\x82\xbd\x9c\xecya?\xfc\xa9\xf1\xd2Mb`?\xfc\xa9\xf1\xd2Mb`?\xfc\xa9\xf1\xd2Mb`?\xfc\xa9\xf1\xd2Mb`?\xa9M\x9c\xdc\xefP4?\xa9M\x9c\xdc\xefP4?'
p115
tp116
basb.