ccopy_reg
_reconstructor
p0
(cpowercad.thermal.elmer_characterize
CachedCharacterization
p1
c__builtin__
object
p2
Ntp3
Rp4
(dp5
S'sublayer_tf'
p6
(ipowercad.thermal.fast_thermal
SublayerThermalFeatures
p7
(dp8
S't_amb'
p9
F300.0
sS'sub_res'
p10
cnumpy.core.multiarray
scalar
p11
(cnumpy
dtype
p12
(S'f8'
p13
I0
I1
tp14
Rp15
(I3
S'<'
p16
NNNI-1
I-1
I0
tp17
bS'\x98g\xda\xfe\x05\xd6\x81?'
p18
tp19
Rp20
sS'metal_thickness'
p21
F0.2
sS'metal_cond'
p22
F400.0
sbsS'materials'
p23
(lp24
(F9700.0
F190.0
tp25
a(F11020.0
F35.8
tp26
a(F8020.0
F400.0
tp27
a(F3250.0
F160.0
tp28
a(F8020.0
F400.0
tp29
a(F11020.0
F35.8
tp30
a(F3200.0
F120.0
tp31
asS'thermal_features'
p32
(ipowercad.thermal.fast_thermal
DieThermalFeatures
p33
(dp34
S'eff_power'
p35
F659.6490001875109
sS'iso_top_temps'
p36
(lp37
(ipowercad.thermal.fast_thermal
ContourRect
p38
(dp39
S'width'
p40
F3.1
sS'avg_val'
p41
F408.1793065112716
sS'height'
p42
F3.123123123123123
sba(ipowercad.thermal.fast_thermal
ContourRect
p43
(dp44
g40
F9.422222222222222
sg41
F140.05960798648414
sg42
F9.12912912912913
sba(ipowercad.thermal.fast_thermal
ContourRect
p45
(dp46
g40
F15.744444444444444
sg41
F35.730936515497355
sg42
F15.555555555555555
sba(ipowercad.thermal.fast_thermal
ContourRect
p47
(dp48
g40
F22.066666666666666
sg41
F10.05928403904905
sg42
F22.1021021021021
sba(ipowercad.thermal.fast_thermal
ContourRect
p49
(dp50
g40
F28.38888888888889
sg41
F3.0066986540536567
sg42
F28.58858858858859
sba(ipowercad.thermal.fast_thermal
ContourRect
p51
(dp52
g40
F34.71111111111111
sg41
F0.9377039159599959
sg42
F34.71471471471472
sba(ipowercad.thermal.fast_thermal
ContourRect
p53
(dp54
g40
F41.03333333333333
sg41
F0.303390352235446
sg42
F40.96096096096096
sba(ipowercad.thermal.fast_thermal
ContourRect
p55
(dp56
g40
F47.355555555555554
sg41
F0.10219937144447001
sg42
F47.207207207207205
sba(ipowercad.thermal.fast_thermal
ContourRect
p57
(dp58
g40
F53.67777777777778
sg41
F0.035490233991929965
sg42
F53.393393393393396
sba(ipowercad.thermal.fast_thermal
ContourRect
p59
(dp60
g40
F60.0
sg41
F0.013630784625356841
sg42
F59.75975975975976
sbasS'iso_top_avg_temp'
p61
F6.531748895645647
sS'die_power'
p62
F750.0
sS'die_res'
p63
F0.6071761452707745
sS'self_temp'
p64
F408.1793065112716
sS'iso_top_fluxes'
p65
(lp66
(ipowercad.thermal.fast_thermal
ContourRect
p67
(dp68
g40
F3.1
sg41
F33.4525051679879
sg42
F3.3633633633633635
sba(ipowercad.thermal.fast_thermal
ContourRect
p69
(dp70
g40
F3.6315982649315983
sg41
F19.978617274439966
sg42
F3.843843843843844
sba(ipowercad.thermal.fast_thermal
ContourRect
p71
(dp72
g40
F4.163196529863197
sg41
F14.844545514715012
sg42
F4.2642642642642645
sba(ipowercad.thermal.fast_thermal
ContourRect
p73
(dp74
g40
F4.694794794794795
sg41
F10.350448497534824
sg42
F4.684684684684685
sba(ipowercad.thermal.fast_thermal
ContourRect
p75
(dp76
g40
F5.2263930597263935
sg41
F6.781179522428396
sg42
F5.045045045045045
sba(ipowercad.thermal.fast_thermal
ContourRect
p77
(dp78
g40
F5.757991324657992
sg41
F3.971573732772168
sg42
F5.525525525525525
sba(ipowercad.thermal.fast_thermal
ContourRect
p79
(dp80
g40
F6.289589589589591
sg41
F1.110955913835028
sg42
F7.927927927927928
sba(ipowercad.thermal.fast_thermal
ContourRect
p81
(dp82
g40
F6.821187854521188
sg41
F0.15840509302437913
sg42
F60.0
sba(ipowercad.thermal.fast_thermal
ContourRect
p83
(dp84
g40
F7.352786119452787
sg41
F0.2015371374370952
sg42
F60.0
sba(ipowercad.thermal.fast_thermal
ContourRect
p85
(dp86
g40
F7.884384384384385
sg41
F0.1680539529336548
sg42
F60.0
sbasbsS'conv_coeff'
p87
F50000.0
sS'dimensions'
p88
(lp89
cnumpy.core.multiarray
_reconstruct
p90
(cnumpy
ndarray
p91
(I0
tp92
S'b'
p93
tp94
Rp95
(I1
(I7
tp96
g15
I00
S'\xfc\xa9\xf1\xd2Mb\xb0?\xb8\x1e\x85\xebQ\xb8\xae?\xb8\x1e\x85\xebQ\xb8\xae?\xb8\x1e\x85\xebQ\xb8\xae?y\xe9&1\x08\xac\xac?\x14a\xc3\xd3+ei?\x14a\xc3\xd3+ei?'
p97
tp98
bag90
(g91
(I0
tp99
g93
tp100
Rp101
(I1
(I7
tp102
g15
I00
S'\xfc\xa9\xf1\xd2Mb\xb0?\xb8\x1e\x85\xebQ\xb8\xae?\xb8\x1e\x85\xebQ\xb8\xae?\xb8\x1e\x85\xebQ\xb8\xae?y\xe9&1\x08\xac\xac?\x14a\xc3\xd3+ei?\x14a\xc3\xd3+ei?'
p103
tp104
bag90
(g91
(I0
tp105
g93
tp106
Rp107
(I1
(I7
tp108
g15
I00
S'\xfc\xa9\xf1\xd2MbP?-C\x1c\xeb\xe26\x1a?-C\x1c\xeb\xe26*?\xf1h\xe3\x88\xb5\xf8D?-C\x1c\xeb\xe26*?-C\x1c\xeb\xe26\x1a?\xb2c#\x10\xaf\xeb7?'
p109
tp110
bag90
(g91
(I0
tp111
g93
tp112
Rp113
(I1
(I7
tp114
g15
I00
S'\x1e\x82\xbd\x9c\xecya?\xfc\xa9\xf1\xd2Mb`?\xfc\xa9\xf1\xd2Mb`?\xfc\xa9\xf1\xd2Mb`?\xfc\xa9\xf1\xd2Mb`?\xa9M\x9c\xdc\xefP4?\xa9M\x9c\xdc\xefP4?'
p115
tp116
basb.